#include <math.h>
#include <stdio.h>
#include <stdlib.h>
#include <string.h>


int shirunnian(int d)
{
	if(d%4==0)
	{
		if(d%100==0)
		{
			if(d%400==0)
				return 1;
			else return 0;
		}
		else return 1;
	}
	else return 0;
}

int dijitian(int a,int b,int c)
{
	int i;
	int sum=0;
	int days=0;
	for(i=0;i<b;i++)
	{
		if(i==1||i==3||i==5||i==7||i==8||i==10||i==12)
			days+=31;
		else if(i==4||i==6||i==9||i==11)
			days+=30;
		else if(i==2)
		{
			if(shirunnian(a)==1)
			{
				days+=29;
			}
			else if(shirunnian(a)==0)
			{
				days+=28;
			}
		}
	}
	sum=days+c;
	return sum;
}

int main()
{
	int year,month,day,tianshu=0;
	scanf("%d%d%d", &year,&month,&day);
    tianshu=dijitian(year,month,day);
	printf("%d",tianshu);
	return 0;
}