; ModuleID = '11/885.c'
source_filename = "11/885.c"
target datalayout = "e-m:e-p270:32:32-p271:32:32-p272:64:64-i64:64-f80:128-n8:16:32:64-S128"
target triple = "x86_64-pc-linux-gnu"

@.str = private unnamed_addr constant [7 x i8] c"%d%d%d\00", align 1
@.str.1 = private unnamed_addr constant [3 x i8] c"%d\00", align 1

; Function Attrs: noinline nounwind uwtable
define dso_local i32 @shirunnian(i32 %0) #0 {
  %2 = alloca i32, align 4
  %3 = alloca i32, align 4
  store i32 %0, i32* %3, align 4
  %4 = load i32, i32* %3, align 4
  %5 = srem i32 %4, 4
  %6 = icmp eq i32 %5, 0
  br i1 %6, label %7, label %18

7:                                                ; preds = %1
  %8 = load i32, i32* %3, align 4
  %9 = srem i32 %8, 100
  %10 = icmp eq i32 %9, 0
  br i1 %10, label %11, label %17

11:                                               ; preds = %7
  %12 = load i32, i32* %3, align 4
  %13 = srem i32 %12, 400
  %14 = icmp eq i32 %13, 0
  br i1 %14, label %15, label %16

15:                                               ; preds = %11
  store i32 1, i32* %2, align 4
  br label %19

16:                                               ; preds = %11
  store i32 0, i32* %2, align 4
  br label %19

17:                                               ; preds = %7
  store i32 1, i32* %2, align 4
  br label %19

18:                                               ; preds = %1
  store i32 0, i32* %2, align 4
  br label %19

19:                                               ; preds = %18, %17, %16, %15
  %20 = load i32, i32* %2, align 4
  ret i32 %20
}

; Function Attrs: noinline nounwind uwtable
define dso_local i32 @dijitian(i32 %0, i32 %1, i32 %2) #0 {
  %4 = alloca i32, align 4
  %5 = alloca i32, align 4
  %6 = alloca i32, align 4
  %7 = alloca i32, align 4
  %8 = alloca i32, align 4
  %9 = alloca i32, align 4
  store i32 %0, i32* %4, align 4
  store i32 %1, i32* %5, align 4
  store i32 %2, i32* %6, align 4
  store i32 0, i32* %8, align 4
  store i32 0, i32* %9, align 4
  store i32 0, i32* %7, align 4
  br label %10

10:                                               ; preds = %75, %3
  %11 = load i32, i32* %7, align 4
  %12 = load i32, i32* %5, align 4
  %13 = icmp slt i32 %11, %12
  br i1 %13, label %14, label %78

14:                                               ; preds = %10
  %15 = load i32, i32* %7, align 4
  %16 = icmp eq i32 %15, 1
  br i1 %16, label %35, label %17

17:                                               ; preds = %14
  %18 = load i32, i32* %7, align 4
  %19 = icmp eq i32 %18, 3
  br i1 %19, label %35, label %20

20:                                               ; preds = %17
  %21 = load i32, i32* %7, align 4
  %22 = icmp eq i32 %21, 5
  br i1 %22, label %35, label %23

23:                                               ; preds = %20
  %24 = load i32, i32* %7, align 4
  %25 = icmp eq i32 %24, 7
  br i1 %25, label %35, label %26

26:                                               ; preds = %23
  %27 = load i32, i32* %7, align 4
  %28 = icmp eq i32 %27, 8
  br i1 %28, label %35, label %29

29:                                               ; preds = %26
  %30 = load i32, i32* %7, align 4
  %31 = icmp eq i32 %30, 10
  br i1 %31, label %35, label %32

32:                                               ; preds = %29
  %33 = load i32, i32* %7, align 4
  %34 = icmp eq i32 %33, 12
  br i1 %34, label %35, label %38

35:                                               ; preds = %32, %29, %26, %23, %20, %17, %14
  %36 = load i32, i32* %9, align 4
  %37 = add nsw i32 %36, 31
  store i32 %37, i32* %9, align 4
  br label %74

38:                                               ; preds = %32
  %39 = load i32, i32* %7, align 4
  %40 = icmp eq i32 %39, 4
  br i1 %40, label %50, label %41

41:                                               ; preds = %38
  %42 = load i32, i32* %7, align 4
  %43 = icmp eq i32 %42, 6
  br i1 %43, label %50, label %44

44:                                               ; preds = %41
  %45 = load i32, i32* %7, align 4
  %46 = icmp eq i32 %45, 9
  br i1 %46, label %50, label %47

47:                                               ; preds = %44
  %48 = load i32, i32* %7, align 4
  %49 = icmp eq i32 %48, 11
  br i1 %49, label %50, label %53

50:                                               ; preds = %47, %44, %41, %38
  %51 = load i32, i32* %9, align 4
  %52 = add nsw i32 %51, 30
  store i32 %52, i32* %9, align 4
  br label %73

53:                                               ; preds = %47
  %54 = load i32, i32* %7, align 4
  %55 = icmp eq i32 %54, 2
  br i1 %55, label %56, label %72

56:                                               ; preds = %53
  %57 = load i32, i32* %4, align 4
  %58 = call i32 @shirunnian(i32 %57)
  %59 = icmp eq i32 %58, 1
  br i1 %59, label %60, label %63

60:                                               ; preds = %56
  %61 = load i32, i32* %9, align 4
  %62 = add nsw i32 %61, 29
  store i32 %62, i32* %9, align 4
  br label %71

63:                                               ; preds = %56
  %64 = load i32, i32* %4, align 4
  %65 = call i32 @shirunnian(i32 %64)
  %66 = icmp eq i32 %65, 0
  br i1 %66, label %67, label %70

67:                                               ; preds = %63
  %68 = load i32, i32* %9, align 4
  %69 = add nsw i32 %68, 28
  store i32 %69, i32* %9, align 4
  br label %70

70:                                               ; preds = %67, %63
  br label %71

71:                                               ; preds = %70, %60
  br label %72

72:                                               ; preds = %71, %53
  br label %73

73:                                               ; preds = %72, %50
  br label %74

74:                                               ; preds = %73, %35
  br label %75

75:                                               ; preds = %74
  %76 = load i32, i32* %7, align 4
  %77 = add nsw i32 %76, 1
  store i32 %77, i32* %7, align 4
  br label %10

78:                                               ; preds = %10
  %79 = load i32, i32* %9, align 4
  %80 = load i32, i32* %6, align 4
  %81 = add nsw i32 %79, %80
  store i32 %81, i32* %8, align 4
  %82 = load i32, i32* %8, align 4
  ret i32 %82
}

; Function Attrs: noinline nounwind uwtable
define dso_local i32 @main() #0 {
  %1 = alloca i32, align 4
  %2 = alloca i32, align 4
  %3 = alloca i32, align 4
  %4 = alloca i32, align 4
  %5 = alloca i32, align 4
  store i32 0, i32* %1, align 4
  store i32 0, i32* %5, align 4
  %6 = call i32 (i8*, ...) @__isoc99_scanf(i8* getelementptr inbounds ([7 x i8], [7 x i8]* @.str, i64 0, i64 0), i32* %2, i32* %3, i32* %4)
  %7 = load i32, i32* %2, align 4
  %8 = load i32, i32* %3, align 4
  %9 = load i32, i32* %4, align 4
  %10 = call i32 @dijitian(i32 %7, i32 %8, i32 %9)
  store i32 %10, i32* %5, align 4
  %11 = load i32, i32* %5, align 4
  %12 = call i32 (i8*, ...) @printf(i8* getelementptr inbounds ([3 x i8], [3 x i8]* @.str.1, i64 0, i64 0), i32 %11)
  ret i32 0
}

declare dso_local i32 @__isoc99_scanf(i8*, ...) #1

declare dso_local i32 @printf(i8*, ...) #1


!llvm.module.flags = !{!0}
!llvm.ident = !{!1}

!0 = !{i32 1, !"wchar_size", i32 4}
!1 = !{!"clang version 10.0.0-4ubuntu1 "}
